target datalayout = "e-m:e-p270:32:32-p271:32:32-p272:64:64-i64:64-i128:128-f80:128-n8:16:32:64-S128"
target triple = "x86_64-pc-linux-gnu"

@.str.3 = private unnamed_addr constant [2 x i8] c",\00", align 1
@.str.48 = private unnamed_addr constant [1 x i8] zeroinitializer, align 1
@.str.128 = private unnamed_addr constant [6 x i8] c"%sa2a\00", align 1
@.str.129 = private unnamed_addr constant [7 x i8] c"%ssnc2\00", align 1
@.str.130 = private unnamed_addr constant [7 x i8] c"%ssnc4\00", align 1
@.str.131 = private unnamed_addr constant [7 x i8] c"%shemi\00", align 1
@.str.132 = private unnamed_addr constant [7 x i8] c"%squad\00", align 1

; Function Attrs: nounwind uwtable
define internal ptr @_knl_numa_str(i16 noundef zeroext %0) #0 {
  %2 = alloca i16, align 2
  %3 = alloca ptr, align 8
  %4 = alloca ptr, align 8
  store i16 %0, ptr %2, align 2
  call void @llvm.lifetime.start.p0(i64 8, ptr %3) #9
  store ptr null, ptr %3, align 8
  call void @llvm.lifetime.start.p0(i64 8, ptr %4) #9
  store ptr @.str.48, ptr %4, align 8
  %5 = load i16, ptr %2, align 2
  %6 = zext i16 %5 to i32
  %7 = and i32 %6, 1
  %8 = icmp ne i32 %7, 0
  br i1 %8, label %9, label %11

9:                                                ; preds = %1
  %10 = load ptr, ptr %4, align 8
  call void (ptr, ptr, ...) @_xstrfmtcat(ptr noundef %3, ptr noundef @.str.128, ptr noundef %10)
  store ptr @.str.3, ptr %4, align 8
  br label %11

11:                                               ; preds = %9, %1
  %12 = load i16, ptr %2, align 2
  %13 = zext i16 %12 to i32
  %14 = and i32 %13, 2
  %15 = icmp ne i32 %14, 0
  br i1 %15, label %16, label %18

16:                                               ; preds = %11
  %17 = load ptr, ptr %4, align 8
  call void (ptr, ptr, ...) @_xstrfmtcat(ptr noundef %3, ptr noundef @.str.129, ptr noundef %17)
  store ptr @.str.3, ptr %4, align 8
  br label %18

18:                                               ; preds = %16, %11
  %19 = load i16, ptr %2, align 2
  %20 = zext i16 %19 to i32
  %21 = and i32 %20, 4
  %22 = icmp ne i32 %21, 0
  br i1 %22, label %23, label %25

23:                                               ; preds = %18
  %24 = load ptr, ptr %4, align 8
  call void (ptr, ptr, ...) @_xstrfmtcat(ptr noundef %3, ptr noundef @.str.130, ptr noundef %24)
  store ptr @.str.3, ptr %4, align 8
  br label %25

25:                                               ; preds = %23, %18
  %26 = load i16, ptr %2, align 2
  %27 = zext i16 %26 to i32
  %28 = and i32 %27, 8
  %29 = icmp ne i32 %28, 0
  br i1 %29, label %30, label %32

30:                                               ; preds = %25
  %31 = load ptr, ptr %4, align 8
  call void (ptr, ptr, ...) @_xstrfmtcat(ptr noundef %3, ptr noundef @.str.131, ptr noundef %31)
  store ptr @.str.3, ptr %4, align 8
  br label %32

32:                                               ; preds = %30, %25
  %33 = load i16, ptr %2, align 2
  %34 = zext i16 %33 to i32
  %35 = and i32 %34, 16
  %36 = icmp ne i32 %35, 0
  br i1 %36, label %37, label %39

37:                                               ; preds = %32
  %38 = load ptr, ptr %4, align 8
  call void (ptr, ptr, ...) @_xstrfmtcat(ptr noundef %3, ptr noundef @.str.132, ptr noundef %38)
  br label %39

39:                                               ; preds = %37, %32
  %40 = load ptr, ptr %3, align 8
  call void @llvm.lifetime.end.p0(i64 8, ptr %4) #9
  call void @llvm.lifetime.end.p0(i64 8, ptr %3) #9
  ret ptr %40
}