; Function Attrs: nounwind uwtable
define internal fastcc ptr @_knl_numa_str(i16 noundef zeroext %0) unnamed_addr #0 {
  %2 = alloca ptr, align 8
  call void @llvm.lifetime.start.p0(i64 8, ptr nonnull %2) #14
  store ptr null, ptr %2, align 8
  %3 = zext i16 %0 to i32
  %4 = and i32 %3, 1
  %.not = icmp eq i32 %4, 0
  br i1 %.not, label %6, label %5

5:                                                ; preds = %1
  call void (ptr, ptr, ...) @_xstrfmtcat(ptr noundef nonnull %2, ptr noundef nonnull @.str.128, ptr noundef nonnull @.str.48) #14
  br label %6

6:                                                ; preds = %5, %1
  %.0 = phi ptr [ @.str.3, %5 ], [ @.str.48, %1 ]
  %7 = and i32 %3, 2
  %.not9 = icmp eq i32 %7, 0
  br i1 %.not9, label %9, label %8

8:                                                ; preds = %6
  call void (ptr, ptr, ...) @_xstrfmtcat(ptr noundef nonnull %2, ptr noundef nonnull @.str.129, ptr noundef nonnull %.0) #14
  br label %9

9:                                                ; preds = %8, %6
  %.1 = phi ptr [ @.str.3, %8 ], [ %.0, %6 ]
  %10 = and i32 %3, 4
  %.not10 = icmp eq i32 %10, 0
  br i1 %.not10, label %12, label %11

11:                                               ; preds = %9
  call void (ptr, ptr, ...) @_xstrfmtcat(ptr noundef nonnull %2, ptr noundef nonnull @.str.130, ptr noundef nonnull %.1) #14
  br label %12

12:                                               ; preds = %11, %9
  %.2 = phi ptr [ @.str.3, %11 ], [ %.1, %9 ]
  %13 = and i32 %3, 8
  %.not11 = icmp eq i32 %13, 0
  br i1 %.not11, label %15, label %14

14:                                               ; preds = %12
  call void (ptr, ptr, ...) @_xstrfmtcat(ptr noundef nonnull %2, ptr noundef nonnull @.str.131, ptr noundef %.2) #14
  br label %15

15:                                               ; preds = %14, %12
  %.3 = phi ptr [ @.str.3, %14 ], [ %.2, %12 ]
  %16 = and i32 %3, 16
  %.not12 = icmp eq i32 %16, 0
  br i1 %.not12, label %18, label %17

17:                                               ; preds = %15
  call void (ptr, ptr, ...) @_xstrfmtcat(ptr noundef nonnull %2, ptr noundef nonnull @.str.132, ptr noundef %.3) #14
  br label %18

18:                                               ; preds = %17, %15
  %19 = load ptr, ptr %2, align 8
  call void @llvm.lifetime.end.p0(i64 8, ptr nonnull %2) #14
  ret ptr %19
}